; ModuleID = '11/375.c'
source_filename = "11/375.c"
target datalayout = "e-m:e-p270:32:32-p271:32:32-p272:64:64-i64:64-f80:128-n8:16:32:64-S128"
target triple = "x86_64-pc-linux-gnu"

@.str = private unnamed_addr constant [7 x i8] c"%d%d%d\00", align 1
@.str.1 = private unnamed_addr constant [3 x i8] c"%d\00", align 1

; Function Attrs: noinline nounwind uwtable
define dso_local i32 @main() #0 {
  %1 = alloca i32, align 4
  %2 = alloca i32, align 4
  %3 = alloca i32, align 4
  %4 = alloca i32, align 4
  %5 = alloca i32, align 4
  store i32 0, i32* %1, align 4
  %6 = call i32 (i8*, ...) @__isoc99_scanf(i8* getelementptr inbounds ([7 x i8], [7 x i8]* @.str, i64 0, i64 0), i32* %2, i32* %3, i32* %4)
  %7 = load i32, i32* %2, align 4
  %8 = srem i32 %7, 4
  %9 = icmp eq i32 %8, 0
  br i1 %9, label %10, label %14

10:                                               ; preds = %0
  %11 = load i32, i32* %2, align 4
  %12 = srem i32 %11, 400
  %13 = icmp eq i32 %12, 0
  br i1 %13, label %22, label %14

14:                                               ; preds = %10, %0
  %15 = load i32, i32* %2, align 4
  %16 = srem i32 %15, 4
  %17 = icmp eq i32 %16, 0
  br i1 %17, label %18, label %106

18:                                               ; preds = %14
  %19 = load i32, i32* %2, align 4
  %20 = srem i32 %19, 100
  %21 = icmp ne i32 %20, 0
  br i1 %21, label %22, label %106

22:                                               ; preds = %18, %10
  %23 = load i32, i32* %3, align 4
  %24 = icmp eq i32 %23, 1
  br i1 %24, label %25, label %27

25:                                               ; preds = %22
  %26 = load i32, i32* %4, align 4
  store i32 %26, i32* %5, align 4
  br label %27

27:                                               ; preds = %25, %22
  %28 = load i32, i32* %3, align 4
  %29 = icmp eq i32 %28, 2
  br i1 %29, label %30, label %33

30:                                               ; preds = %27
  %31 = load i32, i32* %4, align 4
  %32 = add nsw i32 31, %31
  store i32 %32, i32* %5, align 4
  br label %33

33:                                               ; preds = %30, %27
  %34 = load i32, i32* %3, align 4
  %35 = icmp eq i32 %34, 3
  br i1 %35, label %36, label %39

36:                                               ; preds = %33
  %37 = load i32, i32* %4, align 4
  %38 = add nsw i32 60, %37
  store i32 %38, i32* %5, align 4
  br label %39

39:                                               ; preds = %36, %33
  %40 = load i32, i32* %3, align 4
  %41 = icmp eq i32 %40, 4
  br i1 %41, label %42, label %45

42:                                               ; preds = %39
  %43 = load i32, i32* %4, align 4
  %44 = add nsw i32 91, %43
  store i32 %44, i32* %5, align 4
  br label %45

45:                                               ; preds = %42, %39
  %46 = load i32, i32* %3, align 4
  %47 = icmp eq i32 %46, 5
  br i1 %47, label %48, label %51

48:                                               ; preds = %45
  %49 = load i32, i32* %4, align 4
  %50 = add nsw i32 121, %49
  store i32 %50, i32* %5, align 4
  br label %51

51:                                               ; preds = %48, %45
  %52 = load i32, i32* %3, align 4
  %53 = icmp eq i32 %52, 6
  br i1 %53, label %54, label %57

54:                                               ; preds = %51
  %55 = load i32, i32* %4, align 4
  %56 = add nsw i32 152, %55
  store i32 %56, i32* %5, align 4
  br label %57

57:                                               ; preds = %54, %51
  %58 = load i32, i32* %3, align 4
  %59 = icmp eq i32 %58, 7
  br i1 %59, label %60, label %63

60:                                               ; preds = %57
  %61 = load i32, i32* %4, align 4
  %62 = add nsw i32 182, %61
  store i32 %62, i32* %5, align 4
  br label %63

63:                                               ; preds = %60, %57
  %64 = load i32, i32* %3, align 4
  %65 = icmp eq i32 %64, 8
  br i1 %65, label %66, label %69

66:                                               ; preds = %63
  %67 = load i32, i32* %4, align 4
  %68 = add nsw i32 213, %67
  store i32 %68, i32* %5, align 4
  br label %69

69:                                               ; preds = %66, %63
  %70 = load i32, i32* %3, align 4
  %71 = icmp eq i32 %70, 9
  br i1 %71, label %72, label %76

72:                                               ; preds = %69
  %73 = load i32, i32* %4, align 4
  %74 = add nsw i32 213, %73
  %75 = add nsw i32 %74, 31
  store i32 %75, i32* %5, align 4
  br label %76

76:                                               ; preds = %72, %69
  %77 = load i32, i32* %3, align 4
  %78 = icmp eq i32 %77, 10
  br i1 %78, label %79, label %84

79:                                               ; preds = %76
  %80 = load i32, i32* %4, align 4
  %81 = add nsw i32 213, %80
  %82 = add nsw i32 %81, 31
  %83 = add nsw i32 %82, 30
  store i32 %83, i32* %5, align 4
  br label %84

84:                                               ; preds = %79, %76
  %85 = load i32, i32* %3, align 4
  %86 = icmp eq i32 %85, 11
  br i1 %86, label %87, label %93

87:                                               ; preds = %84
  %88 = load i32, i32* %4, align 4
  %89 = add nsw i32 213, %88
  %90 = add nsw i32 %89, 31
  %91 = add nsw i32 %90, 30
  %92 = add nsw i32 %91, 31
  store i32 %92, i32* %5, align 4
  br label %93

93:                                               ; preds = %87, %84
  %94 = load i32, i32* %3, align 4
  %95 = icmp eq i32 %94, 12
  br i1 %95, label %96, label %103

96:                                               ; preds = %93
  %97 = load i32, i32* %4, align 4
  %98 = add nsw i32 213, %97
  %99 = add nsw i32 %98, 31
  %100 = add nsw i32 %99, 30
  %101 = add nsw i32 %100, 31
  %102 = add nsw i32 %101, 30
  store i32 %102, i32* %5, align 4
  br label %103

103:                                              ; preds = %96, %93
  %104 = load i32, i32* %5, align 4
  %105 = call i32 (i8*, ...) @printf(i8* getelementptr inbounds ([3 x i8], [3 x i8]* @.str.1, i64 0, i64 0), i32 %104)
  br label %190

106:                                              ; preds = %18, %14
  %107 = load i32, i32* %3, align 4
  %108 = icmp eq i32 %107, 1
  br i1 %108, label %109, label %111

109:                                              ; preds = %106
  %110 = load i32, i32* %4, align 4
  store i32 %110, i32* %5, align 4
  br label %111

111:                                              ; preds = %109, %106
  %112 = load i32, i32* %3, align 4
  %113 = icmp eq i32 %112, 2
  br i1 %113, label %114, label %117

114:                                              ; preds = %111
  %115 = load i32, i32* %4, align 4
  %116 = add nsw i32 31, %115
  store i32 %116, i32* %5, align 4
  br label %117

117:                                              ; preds = %114, %111
  %118 = load i32, i32* %3, align 4
  %119 = icmp eq i32 %118, 3
  br i1 %119, label %120, label %123

120:                                              ; preds = %117
  %121 = load i32, i32* %4, align 4
  %122 = add nsw i32 59, %121
  store i32 %122, i32* %5, align 4
  br label %123

123:                                              ; preds = %120, %117
  %124 = load i32, i32* %3, align 4
  %125 = icmp eq i32 %124, 4
  br i1 %125, label %126, label %129

126:                                              ; preds = %123
  %127 = load i32, i32* %4, align 4
  %128 = add nsw i32 90, %127
  store i32 %128, i32* %5, align 4
  br label %129

129:                                              ; preds = %126, %123
  %130 = load i32, i32* %3, align 4
  %131 = icmp eq i32 %130, 5
  br i1 %131, label %132, label %135

132:                                              ; preds = %129
  %133 = load i32, i32* %4, align 4
  %134 = add nsw i32 120, %133
  store i32 %134, i32* %5, align 4
  br label %135

135:                                              ; preds = %132, %129
  %136 = load i32, i32* %3, align 4
  %137 = icmp eq i32 %136, 6
  br i1 %137, label %138, label %141

138:                                              ; preds = %135
  %139 = load i32, i32* %4, align 4
  %140 = add nsw i32 151, %139
  store i32 %140, i32* %5, align 4
  br label %141

141:                                              ; preds = %138, %135
  %142 = load i32, i32* %3, align 4
  %143 = icmp eq i32 %142, 7
  br i1 %143, label %144, label %147

144:                                              ; preds = %141
  %145 = load i32, i32* %4, align 4
  %146 = add nsw i32 181, %145
  store i32 %146, i32* %5, align 4
  br label %147

147:                                              ; preds = %144, %141
  %148 = load i32, i32* %3, align 4
  %149 = icmp eq i32 %148, 8
  br i1 %149, label %150, label %153

150:                                              ; preds = %147
  %151 = load i32, i32* %4, align 4
  %152 = add nsw i32 212, %151
  store i32 %152, i32* %5, align 4
  br label %153

153:                                              ; preds = %150, %147
  %154 = load i32, i32* %3, align 4
  %155 = icmp eq i32 %154, 9
  br i1 %155, label %156, label %160

156:                                              ; preds = %153
  %157 = load i32, i32* %4, align 4
  %158 = add nsw i32 212, %157
  %159 = add nsw i32 %158, 31
  store i32 %159, i32* %5, align 4
  br label %160

160:                                              ; preds = %156, %153
  %161 = load i32, i32* %3, align 4
  %162 = icmp eq i32 %161, 10
  br i1 %162, label %163, label %168

163:                                              ; preds = %160
  %164 = load i32, i32* %4, align 4
  %165 = add nsw i32 212, %164
  %166 = add nsw i32 %165, 31
  %167 = add nsw i32 %166, 30
  store i32 %167, i32* %5, align 4
  br label %168

168:                                              ; preds = %163, %160
  %169 = load i32, i32* %3, align 4
  %170 = icmp eq i32 %169, 11
  br i1 %170, label %171, label %177

171:                                              ; preds = %168
  %172 = load i32, i32* %4, align 4
  %173 = add nsw i32 212, %172
  %174 = add nsw i32 %173, 31
  %175 = add nsw i32 %174, 30
  %176 = add nsw i32 %175, 31
  store i32 %176, i32* %5, align 4
  br label %177

177:                                              ; preds = %171, %168
  %178 = load i32, i32* %3, align 4
  %179 = icmp eq i32 %178, 12
  br i1 %179, label %180, label %187

180:                                              ; preds = %177
  %181 = load i32, i32* %4, align 4
  %182 = add nsw i32 212, %181
  %183 = add nsw i32 %182, 31
  %184 = add nsw i32 %183, 30
  %185 = add nsw i32 %184, 31
  %186 = add nsw i32 %185, 30
  store i32 %186, i32* %5, align 4
  br label %187

187:                                              ; preds = %180, %177
  %188 = load i32, i32* %5, align 4
  %189 = call i32 (i8*, ...) @printf(i8* getelementptr inbounds ([3 x i8], [3 x i8]* @.str.1, i64 0, i64 0), i32 %188)
  br label %190

190:                                              ; preds = %187, %103
  ret i32 0
}

declare dso_local i32 @__isoc99_scanf(i8*, ...) #1

declare dso_local i32 @printf(i8*, ...) #1


!llvm.module.flags = !{!0}
!llvm.ident = !{!1}

!0 = !{i32 1, !"wchar_size", i32 4}
!1 = !{!"clang version 10.0.0-4ubuntu1 "}
